; Function Attrs: mustprogress nofree norecurse nosync nounwind willreturn memory(argmem: write) uwtable
define internal noundef zeroext i1 @"_ZNSt17_Function_handlerIFvRN19OpenColorIO_v2_5dev10OpRcPtrVecEEZNS0_6CAMERA5CANON11RegisterAllERNS0_28BuiltinTransformRegistryImplEE3$_1E10_M_managerERSt9_Any_dataRKSA_St18_Manager_operation"(ptr noundef nonnull writeonly align 8 captures(none) dereferenceable(16) %0, ptr noundef nonnull align 8 dereferenceable(16) %1, i32 noundef %2) #10 align 2 personality ptr @__gxx_personality_v0 {
  switch i32 %2, label %"_ZNSt14_Function_base13_Base_managerIZN19OpenColorIO_v2_5dev6CAMERA5CANON11RegisterAllERNS1_28BuiltinTransformRegistryImplEE3$_1E10_M_managerERSt9_Any_dataRKS8_St18_Manager_operation.exit" [
    i32 0, label %"_ZNSt14_Function_base13_Base_managerIZN19OpenColorIO_v2_5dev6CAMERA5CANON11RegisterAllERNS1_28BuiltinTransformRegistryImplEE3$_1E10_M_managerERSt9_Any_dataRKS8_St18_Manager_operation.exit.sink.split"
    i32 1, label %4
  ]

4:                                                ; preds = %3
  br label %"_ZNSt14_Function_base13_Base_managerIZN19OpenColorIO_v2_5dev6CAMERA5CANON11RegisterAllERNS1_28BuiltinTransformRegistryImplEE3$_1E10_M_managerERSt9_Any_dataRKS8_St18_Manager_operation.exit.sink.split"

"_ZNSt14_Function_base13_Base_managerIZN19OpenColorIO_v2_5dev6CAMERA5CANON11RegisterAllERNS1_28BuiltinTransformRegistryImplEE3$_1E10_M_managerERSt9_Any_dataRKS8_St18_Manager_operation.exit.sink.split": ; preds = %3, %4
  %.sink = phi ptr [ %1, %4 ], [ @"_ZTIZN19OpenColorIO_v2_5dev6CAMERA5CANON11RegisterAllERNS_28BuiltinTransformRegistryImplEE3$_1", %3 ]
  store ptr %.sink, ptr %0, align 8, !tbaa !16
  br label %"_ZNSt14_Function_base13_Base_managerIZN19OpenColorIO_v2_5dev6CAMERA5CANON11RegisterAllERNS1_28BuiltinTransformRegistryImplEE3$_1E10_M_managerERSt9_Any_dataRKS8_St18_Manager_operation.exit"

"_ZNSt14_Function_base13_Base_managerIZN19OpenColorIO_v2_5dev6CAMERA5CANON11RegisterAllERNS1_28BuiltinTransformRegistryImplEE3$_1E10_M_managerERSt9_Any_dataRKS8_St18_Manager_operation.exit": ; preds = %"_ZNSt14_Function_base13_Base_managerIZN19OpenColorIO_v2_5dev6CAMERA5CANON11RegisterAllERNS1_28BuiltinTransformRegistryImplEE3$_1E10_M_managerERSt9_Any_dataRKS8_St18_Manager_operation.exit.sink.split", %3
  ret i1 false
}